target datalayout = "e-m:e-p270:32:32-p271:32:32-p272:64:64-i64:64-i128:128-f80:128-n8:16:32:64-S128"
target triple = "x86_64-pc-linux-gnu"

%"class.llvm::DIEDwarfExpression" = type <{ %"class.llvm::DwarfExpression", ptr, ptr, %"class.llvm::DIELoc", i8, [7 x i8] }>
%"class.llvm::DwarfExpression" = type { ptr, i8, ptr, %"class.llvm::SmallVector", i64, i32, i16, %"class.std::optional" }
%"class.llvm::SmallVector" = type { %"class.llvm::SmallVectorImpl", %"struct.llvm::SmallVectorStorage" }
%"class.llvm::SmallVectorImpl" = type { %"class.llvm::SmallVectorTemplateBase" }
%"class.llvm::SmallVectorTemplateBase" = type { %"class.llvm::SmallVectorTemplateCommon" }
%"class.llvm::SmallVectorTemplateCommon" = type { %"class.llvm::SmallVectorBase" }
%"class.llvm::SmallVectorBase" = type { ptr, i32, i32 }
%"struct.llvm::SmallVectorStorage" = type { [32 x i8] }
%"class.std::optional" = type { %"struct.std::_Optional_base" }
%"struct.std::_Optional_base" = type { %"struct.std::_Optional_payload" }
%"struct.std::_Optional_payload" = type { %"struct.std::_Optional_payload_base" }
%"struct.std::_Optional_payload_base" = type { %"union.std::_Optional_payload_base<unsigned char>::_Storage", i8 }
%"union.std::_Optional_payload_base<unsigned char>::_Storage" = type { %"struct.std::_Optional_payload_base<unsigned char>::_Empty_byte" }
%"struct.std::_Optional_payload_base<unsigned char>::_Empty_byte" = type { i8 }
%"class.llvm::DIELoc" = type <{ %"class.llvm::DIEValueList", i32, [4 x i8] }>
%"class.llvm::DIEValueList" = type { %"class.llvm::IntrusiveBackList" }
%"class.llvm::IntrusiveBackList" = type { %"struct.llvm::IntrusiveBackListBase" }
%"struct.llvm::IntrusiveBackListBase" = type { ptr }
%"class.llvm::Register" = type { i32 }
%"class.llvm::AsmPrinter" = type <{ %"class.llvm::MachineFunctionPass", ptr, ptr, ptr, %"class.std::unique_ptr", ptr, ptr, ptr, ptr, ptr, ptr, ptr, ptr, ptr, %"class.llvm::MapVector", %"class.llvm::MapVector.7", ptr, %"class.llvm::DenseMap.16", ptr, %"class.std::unique_ptr.19", %"class.llvm::DenseMap.27", i8, [7 x i8], %"class.std::unique_ptr.30", %"class.llvm::DenseMap.38", ptr, ptr, %"class.llvm::SmallVector.41", i64, %"class.llvm::SmallVector.46", i64, %"class.llvm::StackMaps", %"class.std::unique_ptr.66", %"class.std::unique_ptr.74", ptr, %"class.std::unique_ptr.82", i32, i8, i8, i8, i8, %"class.llvm::SmallVector.90", ptr, i32, i32, i8, [7 x i8] }>
%"class.llvm::MachineFunctionPass" = type { %"class.llvm::FunctionPass.base", %"class.llvm::MachineFunctionProperties", %"class.llvm::MachineFunctionProperties", %"class.llvm::MachineFunctionProperties" }
%"class.llvm::FunctionPass.base" = type { %"class.llvm::Pass.base" }
%"class.llvm::Pass.base" = type <{ ptr, ptr, ptr, i32 }>
%"class.llvm::MachineFunctionProperties" = type { %"class.std::bitset" }
%"class.std::bitset" = type { %"struct.std::_Base_bitset" }
%"struct.std::_Base_bitset" = type { i64 }
%"class.std::unique_ptr" = type { %"struct.std::__uniq_ptr_data" }
%"struct.std::__uniq_ptr_data" = type { %"class.std::__uniq_ptr_impl" }
%"class.std::__uniq_ptr_impl" = type { %"class.std::tuple" }
%"class.std::tuple" = type { %"struct.std::_Tuple_impl" }
%"struct.std::_Tuple_impl" = type { %"struct.std::_Head_base.1" }
%"struct.std::_Head_base.1" = type { ptr }
%"class.llvm::MapVector" = type { %"class.llvm::DenseMap", %"class.llvm::SmallVector.2" }
%"class.llvm::DenseMap" = type <{ ptr, i32, i32, i32, [4 x i8] }>
%"class.llvm::SmallVector.2" = type { %"class.llvm::SmallVectorImpl.3" }
%"class.llvm::SmallVectorImpl.3" = type { %"class.llvm::SmallVectorTemplateBase.4" }
%"class.llvm::SmallVectorTemplateBase.4" = type { %"class.llvm::SmallVectorTemplateCommon.5" }
%"class.llvm::SmallVectorTemplateCommon.5" = type { %"class.llvm::SmallVectorBase" }
%"class.llvm::MapVector.7" = type { %"class.llvm::DenseMap.8", %"class.llvm::SmallVector.11" }
%"class.llvm::DenseMap.8" = type <{ ptr, i32, i32, i32, [4 x i8] }>
%"class.llvm::SmallVector.11" = type { %"class.llvm::SmallVectorImpl.12" }
%"class.llvm::SmallVectorImpl.12" = type { %"class.llvm::SmallVectorTemplateBase.13" }
%"class.llvm::SmallVectorTemplateBase.13" = type { %"class.llvm::SmallVectorTemplateCommon.14" }
%"class.llvm::SmallVectorTemplateCommon.14" = type { %"class.llvm::SmallVectorBase" }
%"class.llvm::DenseMap.16" = type <{ ptr, i32, i32, i32, [4 x i8] }>
%"class.std::unique_ptr.19" = type { %"struct.std::__uniq_ptr_data.20" }
%"struct.std::__uniq_ptr_data.20" = type { %"class.std::__uniq_ptr_impl.21" }
%"class.std::__uniq_ptr_impl.21" = type { %"class.std::tuple.22" }
%"class.std::tuple.22" = type { %"struct.std::_Tuple_impl.23" }
%"struct.std::_Tuple_impl.23" = type { %"struct.std::_Head_base.26" }
%"struct.std::_Head_base.26" = type { ptr }
%"class.llvm::DenseMap.27" = type <{ ptr, i32, i32, i32, [4 x i8] }>
%"class.std::unique_ptr.30" = type { %"struct.std::__uniq_ptr_data.31" }
%"struct.std::__uniq_ptr_data.31" = type { %"class.std::__uniq_ptr_impl.32" }
%"class.std::__uniq_ptr_impl.32" = type { %"class.std::tuple.33" }
%"class.std::tuple.33" = type { %"struct.std::_Tuple_impl.34" }
%"struct.std::_Tuple_impl.34" = type { %"struct.std::_Head_base.37" }
%"struct.std::_Head_base.37" = type { ptr }
%"class.llvm::DenseMap.38" = type <{ ptr, i32, i32, i32, [4 x i8] }>
%"class.llvm::SmallVector.41" = type { %"class.llvm::SmallVectorImpl.42", %"struct.llvm::SmallVectorStorage.45" }
%"class.llvm::SmallVectorImpl.42" = type { %"class.llvm::SmallVectorTemplateBase.43" }
%"class.llvm::SmallVectorTemplateBase.43" = type { %"class.llvm::SmallVectorTemplateCommon.44" }
%"class.llvm::SmallVectorTemplateCommon.44" = type { %"class.llvm::SmallVectorBase" }
%"struct.llvm::SmallVectorStorage.45" = type { [16 x i8] }
%"class.llvm::SmallVector.46" = type { %"class.llvm::SmallVectorImpl.47", %"struct.llvm::SmallVectorStorage.50" }
%"class.llvm::SmallVectorImpl.47" = type { %"class.llvm::SmallVectorTemplateBase.48" }
%"class.llvm::SmallVectorTemplateBase.48" = type { %"class.llvm::SmallVectorTemplateCommon.49" }
%"class.llvm::SmallVectorTemplateCommon.49" = type { %"class.llvm::SmallVectorBase" }
%"struct.llvm::SmallVectorStorage.50" = type { [8 x i8] }
%"class.llvm::StackMaps" = type { ptr, %"class.std::vector", %"class.llvm::MapVector.51", %"class.llvm::MapVector.60" }
%"class.std::vector" = type { %"struct.std::_Vector_base" }
%"struct.std::_Vector_base" = type { %"struct.std::_Vector_base<llvm::StackMaps::CallsiteInfo, std::allocator<llvm::StackMaps::CallsiteInfo>>::_Vector_impl" }
%"struct.std::_Vector_base<llvm::StackMaps::CallsiteInfo, std::allocator<llvm::StackMaps::CallsiteInfo>>::_Vector_impl" = type { %"struct.std::_Vector_base<llvm::StackMaps::CallsiteInfo, std::allocator<llvm::StackMaps::CallsiteInfo>>::_Vector_impl_data" }
%"struct.std::_Vector_base<llvm::StackMaps::CallsiteInfo, std::allocator<llvm::StackMaps::CallsiteInfo>>::_Vector_impl_data" = type { ptr, ptr, ptr }
%"class.llvm::MapVector.51" = type { %"class.llvm::DenseMap.52", %"class.llvm::SmallVector.55" }
%"class.llvm::DenseMap.52" = type <{ ptr, i32, i32, i32, [4 x i8] }>
%"class.llvm::SmallVector.55" = type { %"class.llvm::SmallVectorImpl.56" }
%"class.llvm::SmallVectorImpl.56" = type { %"class.llvm::SmallVectorTemplateBase.57" }
%"class.llvm::SmallVectorTemplateBase.57" = type { %"class.llvm::SmallVectorTemplateCommon.58" }
%"class.llvm::SmallVectorTemplateCommon.58" = type { %"class.llvm::SmallVectorBase" }
%"class.llvm::MapVector.60" = type { %"class.llvm::DenseMap.8", %"class.llvm::SmallVector.61" }
%"class.llvm::SmallVector.61" = type { %"class.llvm::SmallVectorImpl.62" }
%"class.llvm::SmallVectorImpl.62" = type { %"class.llvm::SmallVectorTemplateBase.63" }
%"class.llvm::SmallVectorTemplateBase.63" = type { %"class.llvm::SmallVectorTemplateCommon.64" }
%"class.llvm::SmallVectorTemplateCommon.64" = type { %"class.llvm::SmallVectorBase" }
%"class.std::unique_ptr.66" = type { %"struct.std::__uniq_ptr_data.67" }
%"struct.std::__uniq_ptr_data.67" = type { %"class.std::__uniq_ptr_impl.68" }
%"class.std::__uniq_ptr_impl.68" = type { %"class.std::tuple.69" }
%"class.std::tuple.69" = type { %"struct.std::_Tuple_impl.70" }
%"struct.std::_Tuple_impl.70" = type { %"struct.std::_Head_base.73" }
%"struct.std::_Head_base.73" = type { ptr }
%"class.std::unique_ptr.74" = type { %"struct.std::__uniq_ptr_data.75" }
%"struct.std::__uniq_ptr_data.75" = type { %"class.std::__uniq_ptr_impl.76" }
%"class.std::__uniq_ptr_impl.76" = type { %"class.std::tuple.77" }
%"class.std::tuple.77" = type { %"struct.std::_Tuple_impl.78" }
%"struct.std::_Tuple_impl.78" = type { %"struct.std::_Head_base.81" }
%"struct.std::_Head_base.81" = type { ptr }
%"class.std::unique_ptr.82" = type { %"struct.std::__uniq_ptr_data.83" }
%"struct.std::__uniq_ptr_data.83" = type { %"class.std::__uniq_ptr_impl.84" }
%"class.std::__uniq_ptr_impl.84" = type { %"class.std::tuple.85" }
%"class.std::tuple.85" = type { %"struct.std::_Tuple_impl.86" }
%"struct.std::_Tuple_impl.86" = type { %"struct.std::_Head_base.89" }
%"struct.std::_Head_base.89" = type { ptr }
%"class.llvm::SmallVector.90" = type { %"class.llvm::SmallVectorImpl.91", %"struct.llvm::SmallVectorStorage.94" }
%"class.llvm::SmallVectorImpl.91" = type { %"class.llvm::SmallVectorTemplateBase.92" }
%"class.llvm::SmallVectorTemplateBase.92" = type { %"class.llvm::SmallVectorTemplateCommon.93" }
%"class.llvm::SmallVectorTemplateCommon.93" = type { %"class.llvm::SmallVectorBase" }
%"struct.llvm::SmallVectorStorage.94" = type { [160 x i8] }

; Function Attrs: mustprogress nounwind uwtable
define linkonce_odr hidden noundef zeroext i1 @_ZNK4llvm8RegistereqERKS0_(ptr noundef nonnull align 4 dereferenceable(4) %0, ptr noundef nonnull align 4 dereferenceable(4) %1) #0 comdat align 2 {
  %3 = alloca ptr, align 8
  %4 = alloca ptr, align 8
  store ptr %0, ptr %3, align 8
  store ptr %1, ptr %4, align 8
  %5 = load ptr, ptr %3, align 8
  %6 = getelementptr inbounds nuw %"class.llvm::Register", ptr %5, i32 0, i32 0
  %7 = load i32, ptr %6, align 4
  %8 = load ptr, ptr %4, align 8
  %9 = getelementptr inbounds nuw %"class.llvm::Register", ptr %8, i32 0, i32 0
  %10 = load i32, ptr %9, align 4
  %11 = icmp eq i32 %7, %10
  ret i1 %11
}

; Function Attrs: mustprogress nounwind uwtable
define dso_local noundef zeroext i1 @_ZN4llvm18DIEDwarfExpression15isFrameRegisterERKNS_18TargetRegisterInfoENS_8RegisterE(ptr noundef nonnull align 8 dereferenceable(128) %0, ptr noundef nonnull align 8 dereferenceable(308) %1, i32 %2) unnamed_addr #0 align 2 {
  %4 = alloca %"class.llvm::Register", align 4
  %5 = alloca ptr, align 8
  %6 = alloca ptr, align 8
  %7 = alloca %"class.llvm::Register", align 4
  %8 = getelementptr inbounds nuw %"class.llvm::Register", ptr %4, i32 0, i32 0
  store i32 %2, ptr %8, align 4
  store ptr %0, ptr %5, align 8
  store ptr %1, ptr %6, align 8
  %9 = load ptr, ptr %5, align 8
  %10 = load ptr, ptr %6, align 8
  %11 = getelementptr inbounds nuw %"class.llvm::DIEDwarfExpression", ptr %9, i32 0, i32 1
  %12 = load ptr, ptr %11, align 8
  %13 = getelementptr inbounds nuw %"class.llvm::AsmPrinter", ptr %12, i32 0, i32 5
  %14 = load ptr, ptr %13, align 8
  %15 = load ptr, ptr %10, align 8
  %16 = getelementptr inbounds ptr, ptr %15, i64 76
  %17 = load ptr, ptr %16, align 8
  %18 = call i32 %17(ptr noundef nonnull align 8 dereferenceable(308) %10, ptr noundef nonnull align 8 dereferenceable(1041) %14)
  %19 = getelementptr inbounds nuw %"class.llvm::Register", ptr %7, i32 0, i32 0
  store i32 %18, ptr %19, align 4
  %20 = call noundef zeroext i1 @_ZNK4llvm8RegistereqERKS0_(ptr noundef nonnull align 4 dereferenceable(4) %4, ptr noundef nonnull align 4 dereferenceable(4) %7)
  ret i1 %20
}