; Function Attrs: mustprogress nounwind uwtable
define dso_local noundef zeroext i1 @_ZN4llvm18DIEDwarfExpression15isFrameRegisterERKNS_18TargetRegisterInfoENS_8RegisterE(ptr nocapture noundef nonnull readonly align 8 dereferenceable(128) %0, ptr noundef nonnull align 8 dereferenceable(308) %1, i32 %2) unnamed_addr #0 align 2 {
  %4 = getelementptr inbounds nuw i8, ptr %0, i64 88
  %5 = load ptr, ptr %4, align 8
  %6 = getelementptr inbounds nuw i8, ptr %5, i64 88
  %7 = load ptr, ptr %6, align 8
  %8 = load ptr, ptr %1, align 8
  %9 = getelementptr inbounds i8, ptr %8, i64 608
  %10 = load ptr, ptr %9, align 8
  %11 = tail call i32 %10(ptr noundef nonnull align 8 dereferenceable(308) %1, ptr noundef nonnull align 8 dereferenceable(1041) %7) #19
  %12 = icmp eq i32 %2, %11
  ret i1 %12
}